target datalayout = "e-m:e-p270:32:32-p271:32:32-p272:64:64-i64:64-i128:128-f80:128-n8:16:32:64-S128"
target triple = "x86_64-pc-linux-gnu"

%struct.MtrNode = type { i32, i32, i32, i32, ptr, ptr, ptr, ptr }

; Function Attrs: nounwind uwtable
define internal void @fixVarTree(ptr noundef %0, ptr noundef %1, i32 noundef %2) #0 {
  %4 = alloca ptr, align 8
  %5 = alloca ptr, align 8
  %6 = alloca i32, align 4
  store ptr %0, ptr %4, align 8
  store ptr %1, ptr %5, align 8
  store i32 %2, ptr %6, align 4
  %7 = load ptr, ptr %4, align 8
  %8 = getelementptr inbounds %struct.MtrNode, ptr %7, i32 0, i32 1
  %9 = load i32, ptr %8, align 4
  %10 = load ptr, ptr %4, align 8
  %11 = getelementptr inbounds %struct.MtrNode, ptr %10, i32 0, i32 3
  store i32 %9, ptr %11, align 4
  %12 = load ptr, ptr %4, align 8
  %13 = getelementptr inbounds %struct.MtrNode, ptr %12, i32 0, i32 3
  %14 = load i32, ptr %13, align 4
  %15 = load i32, ptr %6, align 4
  %16 = icmp slt i32 %14, %15
  br i1 %16, label %17, label %25

17:                                               ; preds = %3
  %18 = load ptr, ptr %5, align 8
  %19 = load ptr, ptr %4, align 8
  %20 = getelementptr inbounds %struct.MtrNode, ptr %19, i32 0, i32 3
  %21 = load i32, ptr %20, align 4
  %22 = zext i32 %21 to i64
  %23 = getelementptr inbounds i32, ptr %18, i64 %22
  %24 = load i32, ptr %23, align 4
  br label %29

25:                                               ; preds = %3
  %26 = load ptr, ptr %4, align 8
  %27 = getelementptr inbounds %struct.MtrNode, ptr %26, i32 0, i32 3
  %28 = load i32, ptr %27, align 4
  br label %29

29:                                               ; preds = %25, %17
  %30 = phi i32 [ %24, %17 ], [ %28, %25 ]
  %31 = load ptr, ptr %4, align 8
  %32 = getelementptr inbounds %struct.MtrNode, ptr %31, i32 0, i32 1
  store i32 %30, ptr %32, align 4
  %33 = load ptr, ptr %4, align 8
  %34 = getelementptr inbounds %struct.MtrNode, ptr %33, i32 0, i32 5
  %35 = load ptr, ptr %34, align 8
  %36 = icmp ne ptr %35, null
  br i1 %36, label %37, label %43

37:                                               ; preds = %29
  %38 = load ptr, ptr %4, align 8
  %39 = getelementptr inbounds %struct.MtrNode, ptr %38, i32 0, i32 5
  %40 = load ptr, ptr %39, align 8
  %41 = load ptr, ptr %5, align 8
  %42 = load i32, ptr %6, align 4
  call void @fixVarTree(ptr noundef %40, ptr noundef %41, i32 noundef %42)
  br label %43

43:                                               ; preds = %37, %29
  %44 = load ptr, ptr %4, align 8
  %45 = getelementptr inbounds %struct.MtrNode, ptr %44, i32 0, i32 7
  %46 = load ptr, ptr %45, align 8
  %47 = icmp ne ptr %46, null
  br i1 %47, label %48, label %54

48:                                               ; preds = %43
  %49 = load ptr, ptr %4, align 8
  %50 = getelementptr inbounds %struct.MtrNode, ptr %49, i32 0, i32 7
  %51 = load ptr, ptr %50, align 8
  %52 = load ptr, ptr %5, align 8
  %53 = load i32, ptr %6, align 4
  call void @fixVarTree(ptr noundef %51, ptr noundef %52, i32 noundef %53)
  br label %54

54:                                               ; preds = %48, %43
  ret void
}