; Function Attrs: nofree nosync nounwind memory(readwrite, inaccessiblemem: none) uwtable
define internal fastcc void @fixVarTree(ptr noundef nonnull captures(none) initializes((12, 16)) %0, ptr noundef readonly captures(none) %1, i32 noundef %2) unnamed_addr #14 {
  br label %tailrecurse

tailrecurse:                                      ; preds = %17, %3
  %.tr = phi ptr [ %0, %3 ], [ %19, %17 ]
  %4 = getelementptr inbounds nuw i8, ptr %.tr, i64 4
  %5 = load i32, ptr %4, align 4
  %6 = getelementptr inbounds nuw i8, ptr %.tr, i64 12
  store i32 %5, ptr %6, align 4
  %7 = icmp slt i32 %5, %2
  br i1 %7, label %8, label %12

8:                                                ; preds = %tailrecurse
  %9 = zext i32 %5 to i64
  %10 = getelementptr inbounds nuw i32, ptr %1, i64 %9
  %11 = load i32, ptr %10, align 4
  br label %12

12:                                               ; preds = %tailrecurse, %8
  %13 = phi i32 [ %11, %8 ], [ %5, %tailrecurse ]
  store i32 %13, ptr %4, align 4
  %14 = getelementptr inbounds nuw i8, ptr %.tr, i64 24
  %15 = load ptr, ptr %14, align 8
  %.not = icmp eq ptr %15, null
  br i1 %.not, label %17, label %16

16:                                               ; preds = %12
  tail call fastcc void @fixVarTree(ptr noundef %15, ptr noundef %1, i32 noundef %2)
  br label %17

17:                                               ; preds = %16, %12
  %18 = getelementptr inbounds nuw i8, ptr %.tr, i64 40
  %19 = load ptr, ptr %18, align 8
  %.not17 = icmp eq ptr %19, null
  br i1 %.not17, label %20, label %tailrecurse

20:                                               ; preds = %17
  ret void
}